Certificate:
    Data:
        Version: 3 (0x2)
        Serial Number: 2 (0x2)
    Signature Algorithm: sha256WithRSAEncryption
        Issuer: C=CN, ST=Sichuan, L=Chengdu, O=woaiso, OU=woaiso, CN=woaiso.com
        Validity
            Not Before: Dec 15 09:51:35 2018 GMT
            Not After : Dec 15 09:51:35 2019 GMT
        Subject: C=CN, ST=Sichuan, L=Chengdu, O=woaiso, OU=woaiso, CN=woaiso.com
        Subject Public Key Info:
            Public Key Algorithm: rsaEncryption
                Public-Key: (2048 bit)
                Modulus:
                    00:cd:da:4e:96:01:66:ac:28:22:0e:b6:5d:43:4b:
                    ea:c7:f7:48:34:9d:88:6b:bf:f6:67:6e:c6:bb:c0:
                    f6:f0:12:53:21:27:3d:27:29:f6:f6:8c:8f:7d:4f:
                    2c:49:3a:8b:f0:84:1d:09:33:1e:f0:f6:7d:54:66:
                    c7:39:28:88:da:64:34:d0:c0:08:73:58:28:84:e7:
                    44:2b:34:a8:0b:24:da:1e:38:d9:07:24:a0:fd:0b:
                    09:bf:a7:55:9f:b7:46:ea:8c:92:0a:dd:f1:39:dd:
                    62:73:46:c8:c4:45:3e:66:55:21:84:5c:f4:11:26:
                    65:05:a2:29:c1:da:a0:36:59:92:41:b6:3e:d1:6a:
                    de:1e:97:e8:aa:e4:a6:b1:cc:88:d9:3e:7e:9e:26:
                    28:f5:13:be:79:18:1b:c1:b9:73:a5:51:16:4c:e6:
                    5c:c7:d7:e2:40:c5:91:f0:b7:5b:80:51:4e:cd:2c:
                    0e:ef:48:bb:fc:77:42:6b:95:2c:1a:72:7e:90:73:
                    e4:53:d5:c0:7b:6e:87:8f:dd:86:f4:48:83:1d:de:
                    c5:c3:86:eb:41:77:a4:11:3f:26:4c:26:af:f6:e3:
                    23:2e:f1:c8:bc:71:68:e2:b5:57:ef:12:e2:14:62:
                    8f:ff:74:69:83:ef:54:16:45:96:1b:60:a0:37:af:
                    33:3f
                Exponent: 65537 (0x10001)
        X509v3 extensions:
            X509v3 Basic Constraints: 
                CA:FALSE
            X509v3 Key Usage: 
                Digital Signature, Non Repudiation, Key Encipherment
            X509v3 Subject Alternative Name: 
                DNS:woaiso.com, DNS:*.woaiso.com, DNS:*.ankerjiedian.com, DNS:*.jmstatic.com, DNS:*.ankerbox.com, DNS:*.jiediankeji.com, IP Address:127.0.0.1, IP Address:192.168.17.120, IP Address:140.143.178.213
    Signature Algorithm: sha256WithRSAEncryption
         6d:2b:eb:0b:fa:90:2a:5b:97:08:e7:49:6c:a8:4b:c7:33:88:
         b9:cc:e2:57:90:a1:88:96:04:73:ae:1a:53:5b:03:84:5c:7d:
         9d:64:04:80:6d:00:b3:eb:66:40:c0:21:51:f4:88:a1:89:6d:
         7c:24:06:38:86:5f:c3:7d:9a:30:85:ce:57:cb:79:0d:72:8a:
         53:42:29:38:6b:96:d6:e0:92:cf:ef:c3:2a:67:97:4d:41:b1:
         32:0c:db:1a:bc:3b:28:73:92:36:ec:8c:6f:09:30:e4:fb:29:
         b9:63:8d:c9:69:7b:47:80:80:6a:fc:f5:ec:42:24:1b:15:34:
         b3:75:cf:ec:c5:9a:c6:b5:b7:81:58:eb:2f:72:18:86:d9:ef:
         8a:1c:f8:68:7c:2e:dd:f9:40:2a:a6:50:87:05:05:16:ef:7c:
         3e:59:ad:c8:3c:f8:6d:37:85:43:d0:52:6b:fc:5f:a1:f8:67:
         db:9d:3d:e9:e6:17:75:5f:f5:4c:18:a1:ce:d4:1b:95:38:d2:
         14:bd:e5:51:71:90:c6:f2:d0:53:63:d5:ef:9d:aa:87:2f:26:
         61:2f:64:22:15:21:98:0a:5d:79:2b:9f:e4:dc:fe:c9:bf:ef:
         82:96:9c:ca:8a:04:c8:e0:5b:42:4f:67:36:89:03:bc:5c:4b:
         0a:43:c6:68
-----BEGIN CERTIFICATE-----
MIID5TCCAs2gAwIBAgIBAjANBgkqhkiG9w0BAQsFADBoMQswCQYDVQQGEwJDTjEQ
MA4GA1UECAwHU2ljaHVhbjEQMA4GA1UEBwwHQ2hlbmdkdTEPMA0GA1UECgwGd29h
aXNvMQ8wDQYDVQQLDAZ3b2Fpc28xEzARBgNVBAMMCndvYWlzby5jb20wHhcNMTgx
MjE1MDk1MTM1WhcNMTkxMjE1MDk1MTM1WjBoMQswCQYDVQQGEwJDTjEQMA4GA1UE
CAwHU2ljaHVhbjEQMA4GA1UEBwwHQ2hlbmdkdTEPMA0GA1UECgwGd29haXNvMQ8w
DQYDVQQLDAZ3b2Fpc28xEzARBgNVBAMMCndvYWlzby5jb20wggEiMA0GCSqGSIb3
DQEBAQUAA4IBDwAwggEKAoIBAQDN2k6WAWasKCIOtl1DS+rH90g0nYhrv/Znbsa7
wPbwElMhJz0nKfb2jI99TyxJOovwhB0JMx7w9n1UZsc5KIjaZDTQwAhzWCiE50Qr
NKgLJNoeONkHJKD9Cwm/p1Wft0bqjJIK3fE53WJzRsjERT5mVSGEXPQRJmUFoinB
2qA2WZJBtj7Rat4el+iq5KaxzIjZPn6eJij1E755GBvBuXOlURZM5lzH1+JAxZHw
t1uAUU7NLA7vSLv8d0JrlSwacn6Qc+RT1cB7boeP3Yb0SIMd3sXDhutBd6QRPyZM
Jq/24yMu8ci8cWjitVfvEuIUYo//dGmD71QWRZYbYKA3rzM/AgMBAAGjgZkwgZYw
CQYDVR0TBAIwADALBgNVHQ8EBAMCBeAwfAYDVR0RBHUwc4IKd29haXNvLmNvbYIM
Ki53b2Fpc28uY29tghIqLmFua2VyamllZGlhbi5jb22CDiouam1zdGF0aWMuY29t
gg4qLmFua2VyYm94LmNvbYIRKi5qaWVkaWFua2VqaS5jb22HBH8AAAGHBMCoEXiH
BIyPstUwDQYJKoZIhvcNAQELBQADggEBAG0r6wv6kCpblwjnSWyoS8cziLnM4leQ
oYiWBHOuGlNbA4RcfZ1kBIBtALPrZkDAIVH0iKGJbXwkBjiGX8N9mjCFzlfLeQ1y
ilNCKThrltbgks/vwypnl01BsTIM2xq8OyhzkjbsjG8JMOT7Kbljjclpe0eAgGr8
9exCJBsVNLN1z+zFmsa1t4FY6y9yGIbZ74oc+Gh8Lt35QCqmUIcFBRbvfD5Zrcg8
+G03hUPQUmv8X6H4Z9udPenmF3Vf9UwYoc7UG5U40hS95VFxkMby0FNj1e+dqocv
JmEvZCIVIZgKXXkrn+Tc/sm/74KWnMqKBMjgW0JPZzaJA7xcSwpDxmg=
-----END CERTIFICATE-----
